; Function Attrs: mustprogress nofree nounwind uwtable
define noundef double @_Z27calcVibrationalHeatCapacityN3gmx8ArrayRefIKfEEfbf(ptr %0, ptr %1, float noundef %2, i1 noundef zeroext %3, float noundef %4) local_unnamed_addr #4 {
  %6 = select i1 %3, i64 5, i64 6
  %7 = ptrtoint ptr %1 to i64
  %8 = ptrtoint ptr %0 to i64
  %9 = sub i64 %7, %8
  %10 = ashr exact i64 %9, 2
  %11 = icmp slt i64 %6, %10
  br i1 %11, label %.lr.ph, label %._crit_edge

.lr.ph:                                           ; preds = %5
  %12 = fpext float %4 to double
  %13 = fpext float %2 to double
  %14 = fmul double %13, 0x3B30B0E6D55E647C
  br label %16

._crit_edge.loopexit:                             ; preds = %41
  %15 = fmul double %.2, 0x4020A1013E8990BE
  br label %._crit_edge

._crit_edge:                                      ; preds = %._crit_edge.loopexit, %5
  %.0.lcssa = phi double [ 0.000000e+00, %5 ], [ %15, %._crit_edge.loopexit ]
  ret double %.0.lcssa

16:                                               ; preds = %.lr.ph, %41
  %.028 = phi double [ 0.000000e+00, %.lr.ph ], [ %.2, %41 ]
  %.02126 = phi i64 [ %6, %.lr.ph ], [ %42, %41 ]
  %17 = getelementptr inbounds nuw float, ptr %0, i64 %.02126
  %18 = load float, ptr %17, align 4, !tbaa !8
  %19 = fcmp ogt float %18, 0.000000e+00
  br i1 %19, label %20, label %41

20:                                               ; preds = %16
  %21 = fpext float %18 to double
  %22 = fmul double %21, 0x44EA78437A00E75D
  %23 = tail call noundef double @sqrt(double noundef %22) #8, !tbaa !4
  %24 = fmul double %23, %12
  %25 = fmul double %24, 0x38E185A7057C690D
  %26 = fdiv double %25, %14
  %27 = fcmp olt double %26, 1.000000e+02
  br i1 %27, label %28, label %41

28:                                               ; preds = %20
  %29 = tail call double @exp(double noundef %26) #8, !tbaa !4
  %30 = tail call double @expm1(double noundef %26) #8, !tbaa !4
  %31 = fdiv double %26, %30
  %32 = fmul double %31, %31
  %33 = fmul double %29, %32
  %34 = load ptr, ptr @debug, align 8, !tbaa !10
  %.not = icmp eq ptr %34, null
  br i1 %.not, label %39, label %35

35:                                               ; preds = %28
  %36 = trunc i64 %.02126 to i32
  %37 = add i32 %36, 1
  %38 = tail call i32 (ptr, ptr, ...) @fprintf(ptr noundef nonnull %34, ptr noundef nonnull @.str.1, i32 noundef %37, double noundef %21, double noundef %24, double noundef %26, double noundef %33) #8
  br label %39

39:                                               ; preds = %35, %28
  %40 = fadd double %.028, %33
  br label %41

41:                                               ; preds = %20, %39, %16
  %.2 = phi double [ %.028, %16 ], [ %40, %39 ], [ %.028, %20 ]
  %42 = add nuw nsw i64 %.02126, 1
  %exitcond.not = icmp eq i64 %42, %10
  br i1 %exitcond.not, label %._crit_edge.loopexit, label %16, !llvm.loop !15
}